; Function Attrs: nofree norecurse nosync nounwind memory(argmem: readwrite) uwtable
define dso_local i32 @LZ4_decompress_fast_withPrefix64k(ptr noundef %0, ptr noundef %1, i32 noundef %2) local_unnamed_addr #10 {
  %4 = sext i32 %2 to i64
  %5 = getelementptr inbounds i8, ptr %1, i64 %4
  %6 = getelementptr inbounds i8, ptr %1, i64 -65536
  %7 = ptrtoint ptr %5 to i64
  %8 = ptrtoint ptr %6 to i64
  br label %.thread

.thread:                                          ; preds = %._crit_edge, %3
  %.0 = phi ptr [ %0, %3 ], [ %.4, %._crit_edge ]
  %.080.i = phi ptr [ %1, %3 ], [ %58, %._crit_edge ]
  %9 = getelementptr inbounds nuw i8, ptr %.0, i64 1
  %10 = load i8, ptr %.0, align 1, !tbaa !4
  %11 = zext i8 %10 to i32
  %12 = lshr i32 %11, 4
  %13 = zext nneg i32 %12 to i64
  %14 = icmp eq i32 %12, 15
  br i1 %14, label %.preheader34, label %22

.preheader34:                                     ; preds = %.thread, %.preheader34
  %15 = phi ptr [ %18, %.preheader34 ], [ %9, %.thread ]
  %.0.i2 = phi i64 [ %19, %.preheader34 ], [ 0, %.thread ]
  %16 = load i8, ptr %15, align 1, !tbaa !4
  %17 = zext i8 %16 to i64
  %18 = getelementptr inbounds nuw i8, ptr %15, i64 1
  %19 = add i64 %.0.i2, %17
  %20 = icmp eq i8 %16, -1
  br i1 %20, label %.preheader34, label %read_long_length_no_check.exit, !llvm.loop !47

read_long_length_no_check.exit:                   ; preds = %.preheader34
  %21 = add i64 %19, 15
  br label %22

22:                                               ; preds = %read_long_length_no_check.exit, %.thread
  %.1 = phi ptr [ %18, %read_long_length_no_check.exit ], [ %9, %.thread ]
  %.086.i = phi i64 [ %21, %read_long_length_no_check.exit ], [ %13, %.thread ]
  %23 = ptrtoint ptr %.080.i to i64
  %24 = sub i64 %7, %23
  %25 = icmp ult i64 %24, %.086.i
  br i1 %25, label %LZ4_decompress_unsafe_generic.exit, label %26

26:                                               ; preds = %22
  tail call void @llvm.memmove.p0.p0.i64(ptr align 1 %.080.i, ptr nonnull align 1 %.1, i64 %.086.i, i1 false)
  %27 = getelementptr inbounds nuw i8, ptr %.080.i, i64 %.086.i
  %28 = getelementptr inbounds nuw i8, ptr %.1, i64 %.086.i
  %29 = ptrtoint ptr %27 to i64
  %30 = sub i64 %7, %29
  %31 = icmp ult i64 %30, 12
  br i1 %31, label %32, label %34

32:                                               ; preds = %26
  %33 = icmp eq ptr %27, %5
  br i1 %33, label %62, label %LZ4_decompress_unsafe_generic.exit

34:                                               ; preds = %26
  %35 = and i32 %11, 15
  %36 = zext nneg i32 %35 to i64
  %.val = load i16, ptr %28, align 1, !tbaa !23
  %37 = zext i16 %.val to i64
  %38 = getelementptr inbounds nuw i8, ptr %28, i64 2
  %39 = icmp eq i32 %35, 15
  br i1 %39, label %.preheader, label %47

.preheader:                                       ; preds = %34, %.preheader
  %40 = phi ptr [ %43, %.preheader ], [ %38, %34 ]
  %.0.i4 = phi i64 [ %44, %.preheader ], [ 0, %34 ]
  %41 = load i8, ptr %40, align 1, !tbaa !4
  %42 = zext i8 %41 to i64
  %43 = getelementptr inbounds nuw i8, ptr %40, i64 1
  %44 = add i64 %.0.i4, %42
  %45 = icmp eq i8 %41, -1
  br i1 %45, label %.preheader, label %read_long_length_no_check.exit5, !llvm.loop !47

read_long_length_no_check.exit5:                  ; preds = %.preheader
  %46 = add i64 %44, 15
  br label %47

47:                                               ; preds = %read_long_length_no_check.exit5, %34
  %.4 = phi ptr [ %43, %read_long_length_no_check.exit5 ], [ %38, %34 ]
  %.092.i = phi i64 [ %46, %read_long_length_no_check.exit5 ], [ %36, %34 ]
  %48 = add i64 %.092.i, 4
  %49 = icmp ult i64 %30, %48
  %50 = sub i64 %29, %8
  %.not.i = icmp ult i64 %50, %37
  %or.cond = select i1 %49, i1 true, i1 %.not.i
  br i1 %or.cond, label %LZ4_decompress_unsafe_generic.exit, label %51

51:                                               ; preds = %47
  %52 = sub nsw i64 0, %37
  %53 = getelementptr inbounds i8, ptr %27, i64 %52
  %.not = icmp eq i64 %48, 0
  br i1 %.not, label %._crit_edge, label %.lr.ph

.lr.ph:                                           ; preds = %51, %.lr.ph
  %.0.i40 = phi i64 [ %57, %.lr.ph ], [ 0, %51 ]
  %54 = getelementptr inbounds nuw i8, ptr %53, i64 %.0.i40
  %55 = load i8, ptr %54, align 1, !tbaa !4
  %56 = getelementptr inbounds nuw i8, ptr %27, i64 %.0.i40
  store i8 %55, ptr %56, align 1, !tbaa !4
  %57 = add nuw i64 %.0.i40, 1
  %exitcond.not = icmp eq i64 %57, %48
  br i1 %exitcond.not, label %._crit_edge, label %.lr.ph, !llvm.loop !48

._crit_edge:                                      ; preds = %.lr.ph, %51
  %58 = getelementptr inbounds nuw i8, ptr %27, i64 %48
  %59 = ptrtoint ptr %58 to i64
  %60 = sub i64 %7, %59
  %61 = icmp ult i64 %60, 5
  br i1 %61, label %LZ4_decompress_unsafe_generic.exit, label %.thread

62:                                               ; preds = %32
  %63 = ptrtoint ptr %28 to i64
  %64 = ptrtoint ptr %0 to i64
  %65 = sub i64 %63, %64
  %66 = trunc i64 %65 to i32
  br label %LZ4_decompress_unsafe_generic.exit

LZ4_decompress_unsafe_generic.exit:               ; preds = %22, %47, %._crit_edge, %32, %62
  %.5.i = phi i32 [ %66, %62 ], [ -1, %32 ], [ -1, %._crit_edge ], [ -1, %47 ], [ -1, %22 ]
  ret i32 %.5.i
}